target datalayout = "e-m:e-p270:32:32-p271:32:32-p272:64:64-i64:64-i128:128-f80:128-n8:16:32:64-S128"
target triple = "x86_64-pc-linux-gnu"

%struct.__va_list_tag = type { i32, i32, ptr, ptr }
%struct.gc_raise_tag = type { i64, ptr, ptr }

; Function Attrs: nounwind sspstrong uwtable
define internal ptr @gc_vraise(ptr noundef %0) #0 {
  %2 = alloca ptr, align 8
  %3 = alloca ptr, align 8
  store ptr %0, ptr %2, align 8, !tbaa !76
  call void @llvm.lifetime.start.p0(i64 8, ptr %3) #6
  %4 = load ptr, ptr %2, align 8, !tbaa !76
  store ptr %4, ptr %3, align 8, !tbaa !453
  %5 = load ptr, ptr %3, align 8, !tbaa !453
  %6 = getelementptr inbounds nuw %struct.gc_raise_tag, ptr %5, i32 0, i32 0
  %7 = load i64, ptr %6, align 8, !tbaa !448
  %8 = load ptr, ptr %3, align 8, !tbaa !453
  %9 = getelementptr inbounds nuw %struct.gc_raise_tag, ptr %8, i32 0, i32 1
  %10 = load ptr, ptr %9, align 8, !tbaa !451
  %11 = load ptr, ptr %3, align 8, !tbaa !453
  %12 = getelementptr inbounds nuw %struct.gc_raise_tag, ptr %11, i32 0, i32 2
  %13 = load ptr, ptr %12, align 8, !tbaa !452
  %14 = getelementptr inbounds [1 x %struct.__va_list_tag], ptr %13, i64 0, i64 0
  call void @rb_vraise(i64 noundef %7, ptr noundef %10, ptr noundef %14) #46
  unreachable
}