; Function Attrs: noreturn nounwind sspstrong uwtable
define internal noalias noundef nonnull ptr @gc_vraise(ptr noundef readonly captures(none) %0) #32 {
  %2 = load i64, ptr %0, align 8, !tbaa !475
  %3 = getelementptr inbounds nuw i8, ptr %0, i64 8
  %4 = load ptr, ptr %3, align 8, !tbaa !478
  %5 = getelementptr inbounds nuw i8, ptr %0, i64 16
  %6 = load ptr, ptr %5, align 8, !tbaa !479
  tail call void @rb_vraise(i64 noundef %2, ptr noundef %4, ptr noundef %6) #55
  unreachable
}